target datalayout = "e-m:e-p270:32:32-p271:32:32-p272:64:64-i64:64-i128:128-f80:128-n8:16:32:64-S128"
target triple = "x86_64-pc-linux-gnu"

@.str.6 = private unnamed_addr constant [2 x i8] c"r\00", align 1
@.str.102 = private unnamed_addr constant [18 x i8] c"/etc/SuSE-release\00", align 1
@.str.284 = private unnamed_addr constant [21 x i8] c"DISTRIB_DESCRIPTION=\00", align 1
@.str.285 = private unnamed_addr constant [13 x i8] c"PRETTY_NAME=\00", align 1
@.str.286 = private unnamed_addr constant [2 x i8] c"\22\00", align 1
@.str.287 = private unnamed_addr constant [2 x i8] c"=\00", align 1

; Function Attrs: mustprogress nounwind uwtable
define internal void @_ZL20parse_os_info_helperP8_IO_FILEPcmb(ptr noundef %0, ptr noundef %1, i64 noundef %2, i1 noundef zeroext %3) #1 {
  %5 = alloca ptr, align 8
  %6 = alloca ptr, align 8
  %7 = alloca i64, align 8
  %8 = alloca i8, align 1
  %9 = alloca [256 x i8], align 16
  %10 = alloca ptr, align 8
  %11 = alloca ptr, align 8
  %12 = alloca ptr, align 8
  %13 = alloca ptr, align 8
  %14 = alloca ptr, align 8
  store ptr %0, ptr %5, align 8
  store ptr %1, ptr %6, align 8
  store i64 %2, ptr %7, align 8
  %15 = zext i1 %3 to i8
  store i8 %15, ptr %8, align 1
  br label %16

16:                                               ; preds = %81, %4
  %17 = getelementptr inbounds [256 x i8], ptr %9, i64 0, i64 0
  %18 = load ptr, ptr %5, align 8
  %19 = call ptr @fgets(ptr noundef %17, i32 noundef 256, ptr noundef %18)
  %20 = icmp ne ptr %19, null
  br i1 %20, label %21, label %82

21:                                               ; preds = %16
  %22 = getelementptr inbounds [256 x i8], ptr %9, i64 0, i64 0
  %23 = call noundef ptr @strstr(ptr noundef %22, ptr noundef @.str.284) #13
  %24 = icmp ne ptr %23, null
  br i1 %24, label %29, label %25

25:                                               ; preds = %21
  %26 = getelementptr inbounds [256 x i8], ptr %9, i64 0, i64 0
  %27 = call noundef ptr @strstr(ptr noundef %26, ptr noundef @.str.285) #13
  %28 = icmp ne ptr %27, null
  br i1 %28, label %29, label %65

29:                                               ; preds = %25, %21
  %30 = getelementptr inbounds [256 x i8], ptr %9, i64 0, i64 0
  %31 = call noundef ptr @strstr(ptr noundef %30, ptr noundef @.str.286) #13
  store ptr %31, ptr %10, align 8
  %32 = load ptr, ptr %10, align 8
  %33 = icmp ne ptr %32, null
  br i1 %33, label %34, label %48

34:                                               ; preds = %29
  %35 = load ptr, ptr %10, align 8
  %36 = getelementptr inbounds i8, ptr %35, i32 1
  store ptr %36, ptr %10, align 8
  %37 = load ptr, ptr %10, align 8
  %38 = call noundef ptr @strchr(ptr noundef %37, i32 noundef 34) #13
  store ptr %38, ptr %11, align 8
  %39 = load ptr, ptr %11, align 8
  %40 = icmp ne ptr %39, null
  br i1 %40, label %41, label %43

41:                                               ; preds = %34
  %42 = load ptr, ptr %11, align 8
  store i8 0, ptr %42, align 1
  br label %43

43:                                               ; preds = %41, %34
  %44 = load ptr, ptr %6, align 8
  %45 = load ptr, ptr %10, align 8
  %46 = load i64, ptr %7, align 8
  %47 = call ptr @strncpy(ptr noundef %44, ptr noundef %45, i64 noundef %46) #12
  br label %64

48:                                               ; preds = %29
  %49 = getelementptr inbounds [256 x i8], ptr %9, i64 0, i64 0
  %50 = call noundef ptr @strstr(ptr noundef %49, ptr noundef @.str.287) #13
  store ptr %50, ptr %10, align 8
  %51 = load ptr, ptr %10, align 8
  %52 = getelementptr inbounds i8, ptr %51, i32 1
  store ptr %52, ptr %10, align 8
  %53 = load ptr, ptr %10, align 8
  %54 = call noundef ptr @strchr(ptr noundef %53, i32 noundef 10) #13
  store ptr %54, ptr %12, align 8
  %55 = load ptr, ptr %12, align 8
  %56 = icmp ne ptr %55, null
  br i1 %56, label %57, label %59

57:                                               ; preds = %48
  %58 = load ptr, ptr %12, align 8
  store i8 0, ptr %58, align 1
  br label %59

59:                                               ; preds = %57, %48
  %60 = load ptr, ptr %6, align 8
  %61 = load ptr, ptr %10, align 8
  %62 = load i64, ptr %7, align 8
  %63 = call ptr @strncpy(ptr noundef %60, ptr noundef %61, i64 noundef %62) #12
  br label %64

64:                                               ; preds = %59, %43
  br label %94

65:                                               ; preds = %25
  %66 = load i8, ptr %8, align 1
  %67 = trunc i8 %66 to i1
  br i1 %67, label %68, label %80

68:                                               ; preds = %65
  %69 = getelementptr inbounds [256 x i8], ptr %9, i64 0, i64 0
  %70 = call noundef ptr @strchr(ptr noundef %69, i32 noundef 10) #13
  store ptr %70, ptr %13, align 8
  %71 = load ptr, ptr %13, align 8
  %72 = icmp ne ptr %71, null
  br i1 %72, label %73, label %75

73:                                               ; preds = %68
  %74 = load ptr, ptr %13, align 8
  store i8 0, ptr %74, align 1
  br label %75

75:                                               ; preds = %73, %68
  %76 = load ptr, ptr %6, align 8
  %77 = getelementptr inbounds [256 x i8], ptr %9, i64 0, i64 0
  %78 = load i64, ptr %7, align 8
  %79 = call ptr @strncpy(ptr noundef %76, ptr noundef %77, i64 noundef %78) #12
  br label %94

80:                                               ; preds = %65
  br label %81

81:                                               ; preds = %80
  br label %16, !llvm.loop !51

82:                                               ; preds = %16
  %83 = getelementptr inbounds [256 x i8], ptr %9, i64 0, i64 0
  %84 = call noundef ptr @strchr(ptr noundef %83, i32 noundef 10) #13
  store ptr %84, ptr %14, align 8
  %85 = load ptr, ptr %14, align 8
  %86 = icmp ne ptr %85, null
  br i1 %86, label %87, label %89

87:                                               ; preds = %82
  %88 = load ptr, ptr %14, align 8
  store i8 0, ptr %88, align 1
  br label %89

89:                                               ; preds = %87, %82
  %90 = load ptr, ptr %6, align 8
  %91 = getelementptr inbounds [256 x i8], ptr %9, i64 0, i64 0
  %92 = load i64, ptr %7, align 8
  %93 = call ptr @strncpy(ptr noundef %90, ptr noundef %91, i64 noundef %92) #12
  br label %94

94:                                               ; preds = %89, %75, %64
  ret void
}

; Function Attrs: mustprogress nounwind uwtable
define internal void @_ZL13parse_os_infoPcmPKc(ptr noundef %0, i64 noundef %1, ptr noundef %2) #1 {
  %4 = alloca ptr, align 8
  %5 = alloca i64, align 8
  %6 = alloca ptr, align 8
  %7 = alloca ptr, align 8
  %8 = alloca i8, align 1
  store ptr %0, ptr %4, align 8
  store i64 %1, ptr %5, align 8
  store ptr %2, ptr %6, align 8
  %9 = load ptr, ptr %6, align 8
  %10 = call noundef ptr @_ZN2os5fopenEPKcS1_(ptr noundef %9, ptr noundef @.str.6)
  store ptr %10, ptr %7, align 8
  %11 = load ptr, ptr %7, align 8
  %12 = icmp ne ptr %11, null
  br i1 %12, label %13, label %25

13:                                               ; preds = %3
  %14 = load ptr, ptr %6, align 8
  %15 = call i32 @strcmp(ptr noundef %14, ptr noundef @.str.102) #13
  %16 = icmp eq i32 %15, 0
  %17 = zext i1 %16 to i8
  store i8 %17, ptr %8, align 1
  %18 = load ptr, ptr %7, align 8
  %19 = load ptr, ptr %4, align 8
  %20 = load i64, ptr %5, align 8
  %21 = load i8, ptr %8, align 1
  %22 = trunc i8 %21 to i1
  call void @_ZL20parse_os_info_helperP8_IO_FILEPcmb(ptr noundef %18, ptr noundef %19, i64 noundef %20, i1 noundef zeroext %22)
  %23 = load ptr, ptr %7, align 8
  %24 = call i32 @fclose(ptr noundef %23)
  br label %25

25:                                               ; preds = %13, %3
  ret void
}