; Function Attrs: mustprogress nounwind uwtable
define internal fastcc void @_ZL13parse_os_infoPcmPKc(ptr noundef %0, i64 noundef %1, ptr noundef %2) unnamed_addr #0 {
  %4 = alloca [256 x i8], align 16
  %5 = tail call noundef ptr @_ZN2os5fopenEPKcS1_(ptr noundef %2, ptr noundef nonnull @.str.6) #26
  %.not = icmp eq ptr %5, null
  br i1 %.not, label %29, label %6

6:                                                ; preds = %3
  %7 = tail call i32 @strcmp(ptr noundef nonnull dereferenceable(1) %2, ptr noundef nonnull dereferenceable(18) @.str.102) #27
  %8 = icmp eq i32 %7, 0
  call void @llvm.lifetime.start.p0(i64 256, ptr nonnull %4)
  %9 = call ptr @fgets(ptr noundef nonnull %4, i32 noundef 256, ptr noundef nonnull %5)
  %.not.us.i = icmp eq ptr %9, null
  br i1 %8, label %.split.us.i, label %.split.i, !llvm.loop !27

.split.us.i:                                      ; preds = %6
  br i1 %.not.us.i, label %.split37.us.i, label %10

10:                                               ; preds = %.split.us.i
  %11 = call noundef ptr @strstr(ptr noundef nonnull dereferenceable(1) %4, ptr noundef nonnull dereferenceable(1) @.str.284) #27
  %.not29.us.i = icmp eq ptr %11, null
  br i1 %.not29.us.i, label %12, label %.split39.us.i

12:                                               ; preds = %10
  %13 = call noundef ptr @strstr(ptr noundef nonnull dereferenceable(1) %4, ptr noundef nonnull dereferenceable(1) @.str.285) #27
  %.not30.us.i = icmp eq ptr %13, null
  br i1 %.not30.us.i, label %.split41.us.i, label %.split39.us.i

.split.i:                                         ; preds = %6
  br i1 %.not.us.i, label %.split37.us.i, label %.lr.ph.i

14:                                               ; preds = %17
  %15 = call ptr @fgets(ptr noundef nonnull %4, i32 noundef 256, ptr noundef nonnull %5)
  %.not.i = icmp eq ptr %15, null
  br i1 %.not.i, label %.split37.us.i, label %.lr.ph.i

.lr.ph.i:                                         ; preds = %.split.i, %14
  %16 = call noundef ptr @strstr(ptr noundef nonnull dereferenceable(1) %4, ptr noundef nonnull dereferenceable(1) @.str.284) #27
  %.not29.i = icmp eq ptr %16, null
  br i1 %.not29.i, label %17, label %.split39.us.i

17:                                               ; preds = %.lr.ph.i
  %18 = call noundef ptr @strstr(ptr noundef nonnull dereferenceable(1) %4, ptr noundef nonnull dereferenceable(1) @.str.285) #27
  %.not30.i = icmp eq ptr %18, null
  br i1 %.not30.i, label %14, label %.split39.us.i

.split39.us.i:                                    ; preds = %17, %.lr.ph.i, %12, %10
  %strchr.i = call ptr @strchr(ptr nonnull dereferenceable(1) %4, i32 34)
  %.not32.i = icmp eq ptr %strchr.i, null
  br i1 %.not32.i, label %22, label %19

19:                                               ; preds = %.split39.us.i
  %20 = getelementptr inbounds i8, ptr %strchr.i, i64 1
  %21 = call noundef ptr @strchr(ptr noundef nonnull dereferenceable(1) %20, i32 noundef 34) #27
  %.not35.i = icmp eq ptr %21, null
  br i1 %.not35.i, label %_ZL20parse_os_info_helperP8_IO_FILEPcmb.exit, label %.sink.split.i

22:                                               ; preds = %.split39.us.i
  %strchr33.i = call ptr @strchr(ptr nonnull dereferenceable(1) %4, i32 61)
  %23 = getelementptr inbounds i8, ptr %strchr33.i, i64 1
  %24 = call noundef ptr @strchr(ptr noundef nonnull dereferenceable(1) %23, i32 noundef 10) #27
  %.not34.i = icmp eq ptr %24, null
  br i1 %.not34.i, label %_ZL20parse_os_info_helperP8_IO_FILEPcmb.exit, label %.sink.split.i

.split41.us.i:                                    ; preds = %12
  %25 = call noundef ptr @strchr(ptr noundef nonnull dereferenceable(1) %4, i32 noundef 10) #27
  %.not31.i = icmp eq ptr %25, null
  br i1 %.not31.i, label %_ZL20parse_os_info_helperP8_IO_FILEPcmb.exit, label %.sink.split.i

.split37.us.i:                                    ; preds = %14, %.split.i, %.split.us.i
  %26 = call noundef ptr @strchr(ptr noundef nonnull dereferenceable(1) %4, i32 noundef 10) #27
  %.not28.i = icmp eq ptr %26, null
  br i1 %.not28.i, label %_ZL20parse_os_info_helperP8_IO_FILEPcmb.exit, label %.sink.split.i

.sink.split.i:                                    ; preds = %.split37.us.i, %.split41.us.i, %22, %19
  %.sink43.i = phi ptr [ %21, %19 ], [ %24, %22 ], [ %25, %.split41.us.i ], [ %26, %.split37.us.i ]
  %.sink.ph.i = phi ptr [ %20, %19 ], [ %23, %22 ], [ %4, %.split41.us.i ], [ %4, %.split37.us.i ]
  store i8 0, ptr %.sink43.i, align 1
  br label %_ZL20parse_os_info_helperP8_IO_FILEPcmb.exit

_ZL20parse_os_info_helperP8_IO_FILEPcmb.exit:     ; preds = %19, %22, %.split41.us.i, %.split37.us.i, %.sink.split.i
  %.sink.i = phi ptr [ %20, %19 ], [ %23, %22 ], [ %4, %.split41.us.i ], [ %4, %.split37.us.i ], [ %.sink.ph.i, %.sink.split.i ]
  %27 = call ptr @strncpy(ptr noundef %0, ptr noundef nonnull %.sink.i, i64 noundef %1) #26
  call void @llvm.lifetime.end.p0(i64 256, ptr nonnull %4)
  %28 = call i32 @fclose(ptr noundef nonnull %5)
  br label %29

29:                                               ; preds = %_ZL20parse_os_info_helperP8_IO_FILEPcmb.exit, %3
  ret void
}